(dp1
S'anne_krebiehl_mw'
p2
S'michael_schachner'
p3
sS'jim_gordon'
p4
S'paul_gregutt'
p5
sS'paul_gregutt'
p6
S'carrie_dykes'
p7
sS'susan_kostrzewa'
p8
S'alexander_peartree'
p9
sS'christina_pickard'
p10
S'kerin_o_keefe'
p11
sS'lauren_buzzeo'
p12
S'matt_kettmann'
p13
sS'virginie_boone'
p14
S'mike_desimone'
p15
sg11
g10
sS'jeff_jenssen'
p16
S'anna_lee_c_iijima'
p17
sS'sean_p_sullivan'
p18
S'joe_czerwinski'
p19
sS'roger_voss'
p20
S'fiona_adams'
p21
sg21
g20
sg19
g18
sg3
g2
sg9
g8
sg17
g16
sg7
g6
sg13
g12
sg15
g14
s.