(dp1
S'sean_p_sullivan'
p2
S'paul_gregutt'
p3
sS'jim_gordon'
p4
S'virginie_boone'
p5
sS'fiona_adams'
p6
S'alexander_peartree'
p7
sS'matt_kettmann'
p8
g5
sS'roger_voss'
p9
S'anne_krebiehl\xc2\xa0mw'
p10
sS'mike_desimone'
p11
S'lauren_buzzeo'
p12
sg3
g2
sg10
g9
sS'joe_czerwinski'
p13
g12
sS'christina_pickard'
p14
g10
sS'susan_kostrzewa'
p15
S'jeff_jenssen'
p16
sg5
g4
sg12
g2
sS'michael_schachner'
p17
g2
sg7
S'carrie_dykes'
p18
sS'anna_lee_c_iijima'
p19
g16
sS'kerin_okeefe'
p20
g7
sg16
g19
sg18
g7
s.