(dp1
S'sean_p_sullivan'
p2
S'paul_gregutt'
p3
sS'jim_gordon'
p4
S'virginie_boone'
p5
sS'fiona_adams'
p6
S'alexander_peartree'
p7
sS'matt_kettmann'
p8
g5
sg3
g2
sS'roger_voss'
p9
S'anne_krebiehl_mw'
p10
sS'lauren_buzzeo'
p11
g2
sS'mike_desimone'
p12
g11
sS'kerin_o_keefe'
p13
g7
sg10
g9
sS'christina_pickard'
p14
g10
sg5
g4
sS'joe_czerwinski'
p15
g11
sS'michael_schachner'
p16
g2
sg7
S'carrie_dykes'
p17
sS'anna_lee_c_iijima'
p18
S'jeff_jenssen'
p19
sS'susan_kostrzewa'
p20
g19
sg19
g18
sg17
g7
s.